target datalayout = "e-m:e-p270:32:32-p271:32:32-p272:64:64-i64:64-i128:128-f80:128-n8:16:32:64-S128"
target triple = "x86_64-pc-linux-gnu"

%class.cmELF = type { %"class.std::unique_ptr", %"class.std::__cxx11::basic_string" }
%"class.std::unique_ptr" = type { %"struct.std::__uniq_ptr_data" }
%"struct.std::__uniq_ptr_data" = type { %"class.std::__uniq_ptr_impl" }
%"class.std::__uniq_ptr_impl" = type { %"class.std::tuple" }
%"class.std::tuple" = type { %"struct.std::_Tuple_impl" }
%"struct.std::_Tuple_impl" = type { %"struct.std::_Head_base.1" }
%"struct.std::_Head_base.1" = type { ptr }
%"class.std::__cxx11::basic_string" = type { %"struct.std::__cxx11::basic_string<char>::_Alloc_hider", i64, %union.anon }
%"struct.std::__cxx11::basic_string<char>::_Alloc_hider" = type { ptr }
%union.anon = type { i64, [8 x i8] }
%"class.std::unique_ptr.27" = type { %"struct.std::__uniq_ptr_data.28" }
%"struct.std::__uniq_ptr_data.28" = type { %"class.std::__uniq_ptr_impl.29" }
%"class.std::__uniq_ptr_impl.29" = type { %"class.std::tuple.30" }
%"class.std::tuple.30" = type { %"struct.std::_Tuple_impl.31" }
%"struct.std::_Tuple_impl.31" = type { %"struct.std::_Head_base.34" }
%"struct.std::_Head_base.34" = type { ptr }
%class.cmELFInternal = type { ptr, ptr, %"class.std::unique_ptr.27", i32, i32, i16, i8, i32, %"class.std::map" }
%"class.std::map" = type { %"class.std::_Rb_tree" }
%"class.std::_Rb_tree" = type { %"struct.std::_Rb_tree<unsigned int, std::pair<const unsigned int, cmELF::StringEntry>, std::_Select1st<std::pair<const unsigned int, cmELF::StringEntry>>, std::less<unsigned int>>::_Rb_tree_impl" }
%"struct.std::_Rb_tree<unsigned int, std::pair<const unsigned int, cmELF::StringEntry>, std::_Select1st<std::pair<const unsigned int, cmELF::StringEntry>>, std::less<unsigned int>>::_Rb_tree_impl" = type { %"struct.std::_Rb_tree_key_compare", %"struct.std::_Rb_tree_header" }
%"struct.std::_Rb_tree_key_compare" = type { %"struct.std::less" }
%"struct.std::less" = type { i8 }
%"struct.std::_Rb_tree_header" = type { %"struct.std::_Rb_tree_node_base", i64 }
%"struct.std::_Rb_tree_node_base" = type { i32, ptr, ptr, ptr }

; Function Attrs: mustprogress nounwind uwtable
define linkonce_odr dso_local noundef nonnull align 8 dereferenceable(8) ptr @_ZNSt10_Head_baseILm0EP13cmELFInternalLb0EE7_M_headERKS2_(ptr noundef nonnull align 8 dereferenceable(8) %0) #1 comdat align 2 {
  %2 = alloca ptr, align 8
  store ptr %0, ptr %2, align 8
  %3 = load ptr, ptr %2, align 8
  %4 = getelementptr inbounds %"struct.std::_Head_base.1", ptr %3, i32 0, i32 0
  ret ptr %4
}

; Function Attrs: mustprogress nounwind uwtable
define linkonce_odr dso_local noundef nonnull align 8 dereferenceable(8) ptr @_ZNSt11_Tuple_implILm0EJP13cmELFInternalSt14default_deleteIS0_EEE7_M_headERKS4_(ptr noundef nonnull align 8 dereferenceable(8) %0) #1 comdat align 2 {
  %2 = alloca ptr, align 8
  store ptr %0, ptr %2, align 8
  %3 = load ptr, ptr %2, align 8
  %4 = call noundef nonnull align 8 dereferenceable(8) ptr @_ZNSt10_Head_baseILm0EP13cmELFInternalLb0EE7_M_headERKS2_(ptr noundef nonnull align 8 dereferenceable(8) %3) #13
  ret ptr %4
}

; Function Attrs: mustprogress nounwind uwtable
define linkonce_odr dso_local noundef nonnull align 8 dereferenceable(8) ptr @_ZSt12__get_helperILm0EP13cmELFInternalJSt14default_deleteIS0_EEERKT0_RKSt11_Tuple_implIXT_EJS4_DpT1_EE(ptr noundef nonnull align 8 dereferenceable(8) %0) #1 comdat {
  %2 = alloca ptr, align 8
  store ptr %0, ptr %2, align 8
  %3 = load ptr, ptr %2, align 8
  %4 = call noundef nonnull align 8 dereferenceable(8) ptr @_ZNSt11_Tuple_implILm0EJP13cmELFInternalSt14default_deleteIS0_EEE7_M_headERKS4_(ptr noundef nonnull align 8 dereferenceable(8) %3) #13
  ret ptr %4
}

; Function Attrs: mustprogress nounwind uwtable
define linkonce_odr dso_local noundef nonnull align 8 dereferenceable(8) ptr @_ZSt3getILm0EJP13cmELFInternalSt14default_deleteIS0_EEERKNSt13tuple_elementIXT_ESt5tupleIJDpT0_EEE4typeERKS8_(ptr noundef nonnull align 8 dereferenceable(8) %0) #1 comdat {
  %2 = alloca ptr, align 8
  store ptr %0, ptr %2, align 8
  %3 = load ptr, ptr %2, align 8
  %4 = call noundef nonnull align 8 dereferenceable(8) ptr @_ZSt12__get_helperILm0EP13cmELFInternalJSt14default_deleteIS0_EEERKT0_RKSt11_Tuple_implIXT_EJS4_DpT1_EE(ptr noundef nonnull align 8 dereferenceable(8) %3) #13
  ret ptr %4
}

; Function Attrs: mustprogress nounwind uwtable
define linkonce_odr dso_local noundef ptr @_ZNKSt15__uniq_ptr_implI13cmELFInternalSt14default_deleteIS0_EE6_M_ptrEv(ptr noundef nonnull align 8 dereferenceable(8) %0) #1 comdat align 2 {
  %2 = alloca ptr, align 8
  store ptr %0, ptr %2, align 8
  %3 = load ptr, ptr %2, align 8
  %4 = getelementptr inbounds %"class.std::__uniq_ptr_impl", ptr %3, i32 0, i32 0
  %5 = call noundef nonnull align 8 dereferenceable(8) ptr @_ZSt3getILm0EJP13cmELFInternalSt14default_deleteIS0_EEERKNSt13tuple_elementIXT_ESt5tupleIJDpT0_EEE4typeERKS8_(ptr noundef nonnull align 8 dereferenceable(8) %4) #13
  %6 = load ptr, ptr %5, align 8
  ret ptr %6
}

; Function Attrs: mustprogress nounwind uwtable
define linkonce_odr dso_local noundef ptr @_ZNKSt10unique_ptrI13cmELFInternalSt14default_deleteIS0_EE3getEv(ptr noundef nonnull align 8 dereferenceable(8) %0) #1 comdat align 2 {
  %2 = alloca ptr, align 8
  store ptr %0, ptr %2, align 8
  %3 = load ptr, ptr %2, align 8
  %4 = getelementptr inbounds %"class.std::unique_ptr", ptr %3, i32 0, i32 0
  %5 = call noundef ptr @_ZNKSt15__uniq_ptr_implI13cmELFInternalSt14default_deleteIS0_EE6_M_ptrEv(ptr noundef nonnull align 8 dereferenceable(8) %4) #13
  ret ptr %5
}

; Function Attrs: mustprogress nounwind uwtable
define linkonce_odr dso_local noundef i32 @_ZNK13cmELFInternal11GetFileTypeEv(ptr noundef nonnull align 8 dereferenceable(88) %0) #1 comdat align 2 {
  %2 = alloca ptr, align 8
  store ptr %0, ptr %2, align 8
  %3 = load ptr, ptr %2, align 8
  %4 = getelementptr inbounds %class.cmELFInternal, ptr %3, i32 0, i32 4
  %5 = load i32, ptr %4, align 4
  ret i32 %5
}

; Function Attrs: mustprogress nounwind uwtable
define linkonce_odr dso_local noundef zeroext i1 @_ZNKSt10unique_ptrI13cmELFInternalSt14default_deleteIS0_EEcvbEv(ptr noundef nonnull align 8 dereferenceable(8) %0) #1 comdat align 2 {
  %2 = alloca ptr, align 8
  store ptr %0, ptr %2, align 8
  %3 = load ptr, ptr %2, align 8
  %4 = call noundef ptr @_ZNKSt10unique_ptrI13cmELFInternalSt14default_deleteIS0_EE3getEv(ptr noundef nonnull align 8 dereferenceable(8) %3) #13
  %5 = icmp eq ptr %4, null
  %6 = select i1 %5, i1 false, i1 true
  ret i1 %6
}

; Function Attrs: mustprogress nounwind uwtable
define linkonce_odr dso_local noundef ptr @_ZNKSt10unique_ptrI13cmELFInternalSt14default_deleteIS0_EEptEv(ptr noundef nonnull align 8 dereferenceable(8) %0) #1 comdat align 2 {
  %2 = alloca ptr, align 8
  store ptr %0, ptr %2, align 8
  %3 = load ptr, ptr %2, align 8
  %4 = call noundef ptr @_ZNKSt10unique_ptrI13cmELFInternalSt14default_deleteIS0_EE3getEv(ptr noundef nonnull align 8 dereferenceable(8) %3) #13
  ret ptr %4
}

; Function Attrs: mustprogress uwtable
define dso_local noundef zeroext i1 @_ZNK5cmELF5ValidEv(ptr noundef nonnull align 8 dereferenceable(40) %0) #0 align 2 {
  %2 = alloca ptr, align 8
  store ptr %0, ptr %2, align 8
  %3 = load ptr, ptr %2, align 8
  %4 = getelementptr inbounds %class.cmELF, ptr %3, i32 0, i32 0
  %5 = call noundef zeroext i1 @_ZNKSt10unique_ptrI13cmELFInternalSt14default_deleteIS0_EEcvbEv(ptr noundef nonnull align 8 dereferenceable(8) %4) #13
  br i1 %5, label %6, label %11

6:                                                ; preds = %1
  %7 = getelementptr inbounds %class.cmELF, ptr %3, i32 0, i32 0
  %8 = call noundef ptr @_ZNKSt10unique_ptrI13cmELFInternalSt14default_deleteIS0_EEptEv(ptr noundef nonnull align 8 dereferenceable(8) %7) #13
  %9 = call noundef i32 @_ZNK13cmELFInternal11GetFileTypeEv(ptr noundef nonnull align 8 dereferenceable(88) %8)
  %10 = icmp ne i32 %9, 0
  br label %11

11:                                               ; preds = %6, %1
  %12 = phi i1 [ false, %1 ], [ %10, %6 ]
  ret i1 %12
}

; Function Attrs: mustprogress uwtable
define dso_local noundef i32 @_ZNK5cmELF19GetNumberOfSectionsEv(ptr noundef nonnull align 8 dereferenceable(40) %0) #0 align 2 {
  %2 = alloca i32, align 4
  %3 = alloca ptr, align 8
  store ptr %0, ptr %3, align 8
  %4 = load ptr, ptr %3, align 8
  %5 = call noundef zeroext i1 @_ZNK5cmELF5ValidEv(ptr noundef nonnull align 8 dereferenceable(40) %4)
  br i1 %5, label %6, label %13

6:                                                ; preds = %1
  %7 = getelementptr inbounds %class.cmELF, ptr %4, i32 0, i32 0
  %8 = call noundef ptr @_ZNKSt10unique_ptrI13cmELFInternalSt14default_deleteIS0_EEptEv(ptr noundef nonnull align 8 dereferenceable(8) %7) #13
  %9 = load ptr, ptr %8, align 8
  %10 = getelementptr inbounds ptr, ptr %9, i64 2
  %11 = load ptr, ptr %10, align 8
  %12 = call noundef i32 %11(ptr noundef nonnull align 8 dereferenceable(88) %8)
  store i32 %12, ptr %2, align 4
  br label %14

13:                                               ; preds = %1
  store i32 0, ptr %2, align 4
  br label %14

14:                                               ; preds = %13, %6
  %15 = load i32, ptr %2, align 4
  ret i32 %15
}